; Function Attrs: nounwind uwtable
define internal ptr @aes_ocb_dupctx(ptr noundef %0) #0 {
  %2 = tail call i32 @ossl_prov_is_running() #7
  %.not = icmp eq i32 %2, 0
  br i1 %.not, label %13, label %3

3:                                                ; preds = %1
  %4 = tail call noalias ptr @CRYPTO_malloc(i64 noundef 944, ptr noundef nonnull @.str, i32 noundef 342) #7
  %5 = icmp eq ptr %4, null
  br i1 %5, label %13, label %6

6:                                                ; preds = %3
  tail call void @llvm.memcpy.p0.p0.i64(ptr noundef nonnull align 8 dereferenceable(944) %4, ptr noundef nonnull align 8 dereferenceable(944) %0, i64 944, i1 false), !tbaa.struct !22
  %7 = getelementptr inbounds nuw i8, ptr %4, i64 688
  %8 = getelementptr inbounds nuw i8, ptr %0, i64 688
  %9 = getelementptr inbounds nuw i8, ptr %4, i64 192
  %10 = getelementptr inbounds nuw i8, ptr %4, i64 440
  %11 = tail call i32 @CRYPTO_ocb128_copy_ctx(ptr noundef nonnull %7, ptr noundef nonnull %8, ptr noundef nonnull %9, ptr noundef nonnull %10) #7
  %.not11 = icmp eq i32 %11, 0
  br i1 %.not11, label %12, label %13

12:                                               ; preds = %6
  tail call void @CRYPTO_free(ptr noundef nonnull %4, ptr noundef nonnull @.str, i32 noundef 347) #7
  br label %13

13:                                               ; preds = %6, %12, %3, %1
  %.09 = phi ptr [ null, %1 ], [ null, %3 ], [ %4, %6 ], [ null, %12 ]
  ret ptr %.09
}